
/home/docker/workspace/2023EE219_LAB/projects/project/sw/build/scalar-riscv64-mycpu.elf:     file format elf64-littleriscv


Disassembly of section .text:

0000000080000000 <_start>:
    80000000:	00000413          	li	s0,0
    80000004:	00009117          	auipc	sp,0x9
    80000008:	ffc10113          	addi	sp,sp,-4 # 80009000 <_end>
    8000000c:	4b8000ef          	jal	ra,800004c4 <_trm_init>

0000000080000010 <qkvGenerate>:
    80000010:	f7010113          	addi	sp,sp,-144
    80000014:	03a13823          	sd	s10,48(sp)
    80000018:	00002d37          	lui	s10,0x2
    8000001c:	400d0793          	addi	a5,s10,1024 # 2400 <_entry_offset+0x2400>
    80000020:	07313423          	sd	s3,104(sp)
    80000024:	07413023          	sd	s4,96(sp)
    80000028:	05513c23          	sd	s5,88(sp)
    8000002c:	05613823          	sd	s6,80(sp)
    80000030:	05713423          	sd	s7,72(sp)
    80000034:	05813023          	sd	s8,64(sp)
    80000038:	08113423          	sd	ra,136(sp)
    8000003c:	08813023          	sd	s0,128(sp)
    80000040:	06913c23          	sd	s1,120(sp)
    80000044:	07213823          	sd	s2,112(sp)
    80000048:	03913c23          	sd	s9,56(sp)
    8000004c:	03b13423          	sd	s11,40(sp)
    80000050:	00058a93          	mv	s5,a1
    80000054:	00050a13          	mv	s4,a0
    80000058:	00d13423          	sd	a3,8(sp)
    8000005c:	00060993          	mv	s3,a2
    80000060:	00013823          	sd	zero,16(sp)
    80000064:	00f13c23          	sd	a5,24(sp)
    80000068:	f8000c13          	li	s8,-128
    8000006c:	07f00b93          	li	s7,127
    80000070:	06000b13          	li	s6,96
    80000074:	01813783          	ld	a5,24(sp)
    80000078:	00813903          	ld	s2,8(sp)
    8000007c:	00000493          	li	s1,0
    80000080:	00fa8433          	add	s0,s5,a5
    80000084:	009987b3          	add	a5,s3,s1
    80000088:	00078d03          	lb	s10,0(a5)
    8000008c:	009a8db3          	add	s11,s5,s1
    80000090:	000a0c93          	mv	s9,s4
    80000094:	000d8583          	lb	a1,0(s11)
    80000098:	000c8503          	lb	a0,0(s9)
    8000009c:	060d8d93          	addi	s11,s11,96
    800000a0:	001c8c93          	addi	s9,s9,1
    800000a4:	440000ef          	jal	ra,800004e4 <__muldi3>
    800000a8:	01a50d3b          	addw	s10,a0,s10
    800000ac:	ffb414e3          	bne	s0,s11,80000094 <qkvGenerate+0x84>
    800000b0:	407d579b          	sraiw	a5,s10,0x7
    800000b4:	0017879b          	addiw	a5,a5,1
    800000b8:	4017d71b          	sraiw	a4,a5,0x1
    800000bc:	00070793          	mv	a5,a4
    800000c0:	01875663          	bge	a4,s8,800000cc <qkvGenerate+0xbc>
    800000c4:	f8000793          	li	a5,-128
    800000c8:	f8000713          	li	a4,-128
    800000cc:	00ebd463          	bge	s7,a4,800000d4 <qkvGenerate+0xc4>
    800000d0:	07f00793          	li	a5,127
    800000d4:	00f92023          	sw	a5,0(s2)
    800000d8:	00148493          	addi	s1,s1,1
    800000dc:	00490913          	addi	s2,s2,4
    800000e0:	00140413          	addi	s0,s0,1
    800000e4:	fb6490e3          	bne	s1,s6,80000084 <qkvGenerate+0x74>
    800000e8:	01013783          	ld	a5,16(sp)
    800000ec:	00813703          	ld	a4,8(sp)
    800000f0:	060a0a13          	addi	s4,s4,96
    800000f4:	06078793          	addi	a5,a5,96
    800000f8:	18070713          	addi	a4,a4,384
    800000fc:	00e13423          	sd	a4,8(sp)
    80000100:	00f13823          	sd	a5,16(sp)
    80000104:	3c000713          	li	a4,960
    80000108:	06098993          	addi	s3,s3,96
    8000010c:	f6e794e3          	bne	a5,a4,80000074 <qkvGenerate+0x64>
    80000110:	08813083          	ld	ra,136(sp)
    80000114:	08013403          	ld	s0,128(sp)
    80000118:	07813483          	ld	s1,120(sp)
    8000011c:	07013903          	ld	s2,112(sp)
    80000120:	06813983          	ld	s3,104(sp)
    80000124:	06013a03          	ld	s4,96(sp)
    80000128:	05813a83          	ld	s5,88(sp)
    8000012c:	05013b03          	ld	s6,80(sp)
    80000130:	04813b83          	ld	s7,72(sp)
    80000134:	04013c03          	ld	s8,64(sp)
    80000138:	03813c83          	ld	s9,56(sp)
    8000013c:	03013d03          	ld	s10,48(sp)
    80000140:	02813d83          	ld	s11,40(sp)
    80000144:	09010113          	addi	sp,sp,144
    80000148:	00008067          	ret

000000008000014c <main>:
    8000014c:	f2010113          	addi	sp,sp,-224
    80000150:	0c813823          	sd	s0,208(sp)
    80000154:	0c913423          	sd	s1,200(sp)
    80000158:	0d213023          	sd	s2,192(sp)
    8000015c:	10100413          	li	s0,257
    80000160:	02020937          	lui	s2,0x2020
    80000164:	203c14b7          	lui	s1,0x203c1
    80000168:	01741413          	slli	s0,s0,0x17
    8000016c:	00249493          	slli	s1,s1,0x2
    80000170:	1bf90613          	addi	a2,s2,447 # 20201bf <_entry_offset+0x20201bf>
    80000174:	c0048693          	addi	a3,s1,-1024 # 203c0c00 <_entry_offset+0x203c0c00>
    80000178:	00661613          	slli	a2,a2,0x6
    8000017c:	3c040593          	addi	a1,s0,960
    80000180:	00040513          	mv	a0,s0
    80000184:	0c113c23          	sd	ra,216(sp)
    80000188:	0b413823          	sd	s4,176(sp)
    8000018c:	0b313c23          	sd	s3,184(sp)
    80000190:	0b513423          	sd	s5,168(sp)
    80000194:	0b613023          	sd	s6,160(sp)
    80000198:	09713c23          	sd	s7,152(sp)
    8000019c:	09813823          	sd	s8,144(sp)
    800001a0:	09913423          	sd	s9,136(sp)
    800001a4:	09a13023          	sd	s10,128(sp)
    800001a8:	07b13c23          	sd	s11,120(sp)
    800001ac:	e65ff0ef          	jal	ra,80000010 <qkvGenerate>
    800001b0:	101e16b7          	lui	a3,0x101e1
    800001b4:	01010737          	lui	a4,0x1010
    800001b8:	404017b7          	lui	a5,0x40401
    800001bc:	0e770713          	addi	a4,a4,231 # 10100e7 <_entry_offset+0x10100e7>
    800001c0:	00179793          	slli	a5,a5,0x1
    800001c4:	00369693          	slli	a3,a3,0x3
    800001c8:	00771613          	slli	a2,a4,0x7
    800001cc:	7c078593          	addi	a1,a5,1984 # 404017c0 <_entry_offset+0x404017c0>
    800001d0:	80068693          	addi	a3,a3,-2048 # 101e0800 <_entry_offset+0x101e0800>
    800001d4:	00040513          	mv	a0,s0
    800001d8:	e39ff0ef          	jal	ra,80000010 <qkvGenerate>
    800001dc:	002046b7          	lui	a3,0x204
    800001e0:	1dd90613          	addi	a2,s2,477
    800001e4:	12f90593          	addi	a1,s2,303
    800001e8:	c2d68693          	addi	a3,a3,-979 # 203c2d <_entry_offset+0x203c2d>
    800001ec:	00a69693          	slli	a3,a3,0xa
    800001f0:	00661613          	slli	a2,a2,0x6
    800001f4:	00659593          	slli	a1,a1,0x6
    800001f8:	00040513          	mv	a0,s0
    800001fc:	e15ff0ef          	jal	ra,80000010 <qkvGenerate>
    80000200:	080f17b7          	lui	a5,0x80f1
    80000204:	f1978793          	addi	a5,a5,-231 # 80f0f19 <_entry_offset+0x80f0f19>
    80000208:	00479793          	slli	a5,a5,0x4
    8000020c:	02f13423          	sd	a5,40(sp)
    80000210:	101e27b7          	lui	a5,0x101e2
    80000214:	e0578793          	addi	a5,a5,-507 # 101e1e05 <_entry_offset+0x101e1e05>
    80000218:	3c000713          	li	a4,960
    8000021c:	06f13023          	sd	a5,96(sp)
    80000220:	0080f7b7          	lui	a5,0x80f
    80000224:	00879793          	slli	a5,a5,0x8
    80000228:	00e13423          	sd	a4,8(sp)
    8000022c:	c8048713          	addi	a4,s1,-896
    80000230:	04e13c23          	sd	a4,88(sp)
    80000234:	06f13423          	sd	a5,104(sp)
    80000238:	00081737          	lui	a4,0x81
    8000023c:	0000b7b7          	lui	a5,0xb
    80000240:	f0f70713          	addi	a4,a4,-241 # 80f0f <_entry_offset+0x80f0f>
    80000244:	40078793          	addi	a5,a5,1024 # b400 <_entry_offset+0xb400>
    80000248:	02013023          	sd	zero,32(sp)
    8000024c:	02013823          	sd	zero,48(sp)
    80000250:	04013023          	sd	zero,64(sp)
    80000254:	02e13c23          	sd	a4,56(sp)
    80000258:	000044b7          	lui	s1,0x4
    8000025c:	f8000a13          	li	s4,-128
    80000260:	04f13823          	sd	a5,80(sp)
    80000264:	02013783          	ld	a5,32(sp)
    80000268:	203c1737          	lui	a4,0x203c1
    8000026c:	00271713          	slli	a4,a4,0x2
    80000270:	c0070713          	addi	a4,a4,-1024 # 203c0c00 <_entry_offset+0x203c0c00>
    80000274:	00e78b33          	add	s6,a5,a4
    80000278:	05813703          	ld	a4,88(sp)
    8000027c:	03012d03          	lw	s10,48(sp)
    80000280:	01613823          	sd	s6,16(sp)
    80000284:	00e78933          	add	s2,a5,a4
    80000288:	03813783          	ld	a5,56(sp)
    8000028c:	07f00b93          	li	s7,127
    80000290:	00c79c13          	slli	s8,a5,0xc
    80000294:	01013783          	ld	a5,16(sp)
    80000298:	01a13c23          	sd	s10,24(sp)
    8000029c:	000d0a93          	mv	s5,s10
    800002a0:	41678433          	sub	s0,a5,s6
    800002a4:	000c0993          	mv	s3,s8
    800002a8:	000b0d93          	mv	s11,s6
    800002ac:	00000c93          	li	s9,0
    800002b0:	01b40733          	add	a4,s0,s11
    800002b4:	00e48733          	add	a4,s1,a4
    800002b8:	000da583          	lw	a1,0(s11)
    800002bc:	c0072503          	lw	a0,-1024(a4)
    800002c0:	004d8d93          	addi	s11,s11,4
    800002c4:	220000ef          	jal	ra,800004e4 <__muldi3>
    800002c8:	01950cbb          	addw	s9,a0,s9
    800002cc:	ffb912e3          	bne	s2,s11,800002b0 <main+0x164>
    800002d0:	407cd79b          	sraiw	a5,s9,0x7
    800002d4:	0017879b          	addiw	a5,a5,1
    800002d8:	4017d71b          	sraiw	a4,a5,0x1
    800002dc:	00070793          	mv	a5,a4
    800002e0:	01475663          	bge	a4,s4,800002ec <main+0x1a0>
    800002e4:	f8000793          	li	a5,-128
    800002e8:	f8000713          	li	a4,-128
    800002ec:	00ebd463          	bge	s7,a4,800002f4 <main+0x1a8>
    800002f0:	07f00793          	li	a5,127
    800002f4:	00f9a023          	sw	a5,0(s3)
    800002f8:	00813783          	ld	a5,8(sp)
    800002fc:	060a8a9b          	addiw	s5,s5,96
    80000300:	00498993          	addi	s3,s3,4
    80000304:	18040413          	addi	s0,s0,384
    80000308:	fb5790e3          	bne	a5,s5,800002a8 <main+0x15c>
    8000030c:	02813783          	ld	a5,40(sp)
    80000310:	028c0c13          	addi	s8,s8,40
    80000314:	180b0b13          	addi	s6,s6,384
    80000318:	18090913          	addi	s2,s2,384
    8000031c:	f6fc1ce3          	bne	s8,a5,80000294 <main+0x148>
    80000320:	03813783          	ld	a5,56(sp)
    80000324:	00a00613          	li	a2,10
    80000328:	00c79813          	slli	a6,a5,0xc
    8000032c:	00080713          	mv	a4,a6
    80000330:	00000513          	li	a0,0
    80000334:	00000593          	li	a1,0
    80000338:	00000793          	li	a5,0
    8000033c:	00072683          	lw	a3,0(a4)
    80000340:	00470713          	addi	a4,a4,4
    80000344:	00d5d863          	bge	a1,a3,80000354 <main+0x208>
    80000348:	0186959b          	slliw	a1,a3,0x18
    8000034c:	00078513          	mv	a0,a5
    80000350:	4185d59b          	sraiw	a1,a1,0x18
    80000354:	0017879b          	addiw	a5,a5,1
    80000358:	fec792e3          	bne	a5,a2,8000033c <main+0x1f0>
    8000035c:	00080713          	mv	a4,a6
    80000360:	00000793          	li	a5,0
    80000364:	14f50a63          	beq	a0,a5,800004b8 <main+0x36c>
    80000368:	00072023          	sw	zero,0(a4)
    8000036c:	0017879b          	addiw	a5,a5,1
    80000370:	00470713          	addi	a4,a4,4
    80000374:	fec798e3          	bne	a5,a2,80000364 <main+0x218>
    80000378:	02813783          	ld	a5,40(sp)
    8000037c:	02880813          	addi	a6,a6,40
    80000380:	faf816e3          	bne	a6,a5,8000032c <main+0x1e0>
    80000384:	06013783          	ld	a5,96(sp)
    80000388:	06813703          	ld	a4,104(sp)
    8000038c:	00013823          	sd	zero,16(sp)
    80000390:	00379413          	slli	s0,a5,0x3
    80000394:	03813783          	ld	a5,56(sp)
    80000398:	07f00c13          	li	s8,127
    8000039c:	02000b93          	li	s7,32
    800003a0:	00c79a93          	slli	s5,a5,0xc
    800003a4:	02013783          	ld	a5,32(sp)
    800003a8:	00e787b3          	add	a5,a5,a4
    800003ac:	04f13423          	sd	a5,72(sp)
    800003b0:	04813703          	ld	a4,72(sp)
    800003b4:	01013783          	ld	a5,16(sp)
    800003b8:	00000993          	li	s3,0
    800003bc:	40f70933          	sub	s2,a4,a5
    800003c0:	05013703          	ld	a4,80(sp)
    800003c4:	00e78b33          	add	s6,a5,a4
    800003c8:	012b0cb3          	add	s9,s6,s2
    800003cc:	000a8d13          	mv	s10,s5
    800003d0:	00000d93          	li	s11,0
    800003d4:	000ca583          	lw	a1,0(s9)
    800003d8:	000d2503          	lw	a0,0(s10)
    800003dc:	004d0d13          	addi	s10,s10,4
    800003e0:	180c8c93          	addi	s9,s9,384
    800003e4:	100000ef          	jal	ra,800004e4 <__muldi3>
    800003e8:	01b50dbb          	addw	s11,a0,s11
    800003ec:	ffa414e3          	bne	s0,s10,800003d4 <main+0x288>
    800003f0:	000d8793          	mv	a5,s11
    800003f4:	014dd463          	bge	s11,s4,800003fc <main+0x2b0>
    800003f8:	f8000793          	li	a5,-128
    800003fc:	0007871b          	sext.w	a4,a5
    80000400:	00ec5463          	bge	s8,a4,80000408 <main+0x2bc>
    80000404:	07f00793          	li	a5,127
    80000408:	00f92023          	sw	a5,0(s2)
    8000040c:	0019899b          	addiw	s3,s3,1
    80000410:	00490913          	addi	s2,s2,4
    80000414:	fb799ae3          	bne	s3,s7,800003c8 <main+0x27c>
    80000418:	01013703          	ld	a4,16(sp)
    8000041c:	01813783          	ld	a5,24(sp)
    80000420:	028a8a93          	addi	s5,s5,40
    80000424:	e8070713          	addi	a4,a4,-384
    80000428:	00e13823          	sd	a4,16(sp)
    8000042c:	00813703          	ld	a4,8(sp)
    80000430:	0607879b          	addiw	a5,a5,96
    80000434:	00f13c23          	sd	a5,24(sp)
    80000438:	02840413          	addi	s0,s0,40
    8000043c:	f6f71ae3          	bne	a4,a5,800003b0 <main+0x264>
    80000440:	00813683          	ld	a3,8(sp)
    80000444:	04013783          	ld	a5,64(sp)
    80000448:	0206869b          	addiw	a3,a3,32
    8000044c:	00d13423          	sd	a3,8(sp)
    80000450:	03013683          	ld	a3,48(sp)
    80000454:	0017871b          	addiw	a4,a5,1
    80000458:	04e13023          	sd	a4,64(sp)
    8000045c:	02068693          	addi	a3,a3,32
    80000460:	02d13823          	sd	a3,48(sp)
    80000464:	02013683          	ld	a3,32(sp)
    80000468:	00300793          	li	a5,3
    8000046c:	08068693          	addi	a3,a3,128
    80000470:	02d13023          	sd	a3,32(sp)
    80000474:	def718e3          	bne	a4,a5,80000264 <main+0x118>
    80000478:	0d813083          	ld	ra,216(sp)
    8000047c:	0d013403          	ld	s0,208(sp)
    80000480:	0c813483          	ld	s1,200(sp)
    80000484:	0c013903          	ld	s2,192(sp)
    80000488:	0b813983          	ld	s3,184(sp)
    8000048c:	0b013a03          	ld	s4,176(sp)
    80000490:	0a813a83          	ld	s5,168(sp)
    80000494:	0a013b03          	ld	s6,160(sp)
    80000498:	09813b83          	ld	s7,152(sp)
    8000049c:	09013c03          	ld	s8,144(sp)
    800004a0:	08813c83          	ld	s9,136(sp)
    800004a4:	08013d03          	ld	s10,128(sp)
    800004a8:	07813d83          	ld	s11,120(sp)
    800004ac:	00000513          	li	a0,0
    800004b0:	0e010113          	addi	sp,sp,224
    800004b4:	00008067          	ret
    800004b8:	00100693          	li	a3,1
    800004bc:	00d72023          	sw	a3,0(a4)
    800004c0:	eadff06f          	j	8000036c <main+0x220>

00000000800004c4 <_trm_init>:
    800004c4:	ff010113          	addi	sp,sp,-16
    800004c8:	00000517          	auipc	a0,0x0
    800004cc:	04050513          	addi	a0,a0,64 # 80000508 <_etext>
    800004d0:	00113423          	sd	ra,8(sp)
    800004d4:	c79ff0ef          	jal	ra,8000014c <main>
    800004d8:	00050513          	mv	a0,a0
    800004dc:	0000006b          	0x6b
    800004e0:	0000006f          	j	800004e0 <_trm_init+0x1c>

00000000800004e4 <__muldi3>:
    800004e4:	00050613          	mv	a2,a0
    800004e8:	00000513          	li	a0,0
    800004ec:	0015f693          	andi	a3,a1,1
    800004f0:	00068463          	beqz	a3,800004f8 <__muldi3+0x14>
    800004f4:	00c50533          	add	a0,a0,a2
    800004f8:	0015d593          	srli	a1,a1,0x1
    800004fc:	00161613          	slli	a2,a2,0x1
    80000500:	fe0596e3          	bnez	a1,800004ec <__muldi3+0x8>
    80000504:	00008067          	ret
