
/home/docker/workspace/2023EE219_LAB/projects/project/sw/build/vec32_224-riscv64-mycpu.elf:     file format elf64-littleriscv


Disassembly of section .text:

0000000080000000 <_start>:
    80000000:	00000413          	li	s0,0
    80000004:	00009117          	auipc	sp,0x9
    80000008:	ffc10113          	addi	sp,sp,-4 # 80009000 <_end>
    8000000c:	624000ef          	jal	ra,80000630 <_trm_init>

0000000080000010 <main>:
    80000010:	f7010113          	addi	sp,sp,-144
    80000014:	008098b7          	lui	a7,0x809
    80000018:	40401637          	lui	a2,0x40401
    8000001c:	202092b7          	lui	t0,0x20209
    80000020:	00081737          	lui	a4,0x81
    80000024:	00889893          	slli	a7,a7,0x8
    80000028:	08813023          	sd	s0,128(sp)
    8000002c:	06913c23          	sd	s1,120(sp)
    80000030:	05513c23          	sd	s5,88(sp)
    80000034:	00229293          	slli	t0,t0,0x2
    80000038:	40500a93          	li	s5,1029
    8000003c:	00161613          	slli	a2,a2,0x1
    80000040:	fffdc4b7          	lui	s1,0xfffdc
    80000044:	81d70713          	addi	a4,a4,-2019 # 8081d <_entry_offset+0x8081d>
    80000048:	00002437          	lui	s0,0x2
    8000004c:	07213823          	sd	s2,112(sp)
    80000050:	07313423          	sd	s3,104(sp)
    80000054:	07413023          	sd	s4,96(sp)
    80000058:	05613823          	sd	s6,80(sp)
    8000005c:	08113423          	sd	ra,136(sp)
    80000060:	05713423          	sd	s7,72(sp)
    80000064:	05813023          	sd	s8,64(sp)
    80000068:	03913c23          	sd	s9,56(sp)
    8000006c:	03a13823          	sd	s10,48(sp)
    80000070:	03b13423          	sd	s11,40(sp)
    80000074:	00008793          	mv	a5,ra
    80000078:	00000313          	li	t1,0
    8000007c:	00010693          	mv	a3,sp
    80000080:	015a9a93          	slli	s5,s5,0x15
    80000084:	00000393          	li	t2,0
    80000088:	58060a13          	addi	s4,a2,1408 # 40401580 <_entry_offset+0x40401580>
    8000008c:	6c028f13          	addi	t5,t0,1728 # 202096c0 <_entry_offset+0x202096c0>
    80000090:	a0048493          	addi	s1,s1,-1536 # fffffffffffdba00 <_end+0xffffffff7ffd2a00>
    80000094:	06088813          	addi	a6,a7,96 # 809060 <_entry_offset+0x809060>
    80000098:	00c71f93          	slli	t6,a4,0xc
    8000009c:	04088993          	addi	s3,a7,64
    800000a0:	00888913          	addi	s2,a7,8
    800000a4:	58040413          	addi	s0,s0,1408 # 2580 <_entry_offset+0x2580>
    800000a8:	0c000b13          	li	s6,192
    800000ac:	01438633          	add	a2,t2,s4
    800000b0:	60028713          	addi	a4,t0,1536
    800000b4:	00060583          	lb	a1,0(a2)
    800000b8:	00170713          	addi	a4,a4,1
    800000bc:	0c060613          	addi	a2,a2,192
    800000c0:	feb70fa3          	sb	a1,-1(a4)
    800000c4:	ffe718e3          	bne	a4,t5,800000b4 <main+0xa4>
    800000c8:	000a8e93          	mv	t4,s5
    800000cc:	00000e13          	li	t3,0
    800000d0:	0208e327          	0x208e327
    800000d4:	00088713          	mv	a4,a7
    800000d8:	60028613          	addi	a2,t0,1536
    800000dc:	009e0533          	add	a0,t3,s1
    800000e0:	00c505b3          	add	a1,a0,a2
    800000e4:	0605e787          	0x605e787
    800000e8:	06066687          	0x6066687
    800000ec:	06d787d7          	0x6d787d7
    800000f0:	020767a7          	0x20767a7
    800000f4:	00870713          	addi	a4,a4,8
    800000f8:	01060613          	addi	a2,a2,16
    800000fc:	ff0712e3          	bne	a4,a6,800000e0 <main+0xd0>
    80000100:	01c38633          	add	a2,t2,t3
    80000104:	00cf8633          	add	a2,t6,a2
    80000108:	58060603          	lb	a2,1408(a2)
    8000010c:	00c72023          	sw	a2,0(a4)
    80000110:	0208e687          	0x208e687
    80000114:	3e0687d7          	0x3e0687d7
    80000118:	0208e7a7          	0x208e7a7
    8000011c:	0209e687          	0x209e687
    80000120:	3e0687d7          	0x3e0687d7
    80000124:	020967a7          	0x20967a7
    80000128:	0208e687          	0x208e687
    8000012c:	1e0687d7          	0x1e0687d7
    80000130:	0208e7a7          	0x208e7a7
    80000134:	0008a703          	lw	a4,0(a7)
    80000138:	0c0e0e13          	addi	t3,t3,192
    8000013c:	300e8e93          	addi	t4,t4,768
    80000140:	d0eea023          	sw	a4,-768(t4)
    80000144:	f88e16e3          	bne	t3,s0,800000d0 <main+0xc0>
    80000148:	00138393          	addi	t2,t2,1
    8000014c:	004a8a93          	addi	s5,s5,4
    80000150:	f5639ee3          	bne	t2,s6,800000ac <main+0x9c>
    80000154:	008098b7          	lui	a7,0x809
    80000158:	01010a37          	lui	s4,0x1010
    8000015c:	20209fb7          	lui	t6,0x20209
    80000160:	00889893          	slli	a7,a7,0x8
    80000164:	002f9f93          	slli	t6,t6,0x2
    80000168:	0080bab7          	lui	s5,0x80b
    8000016c:	16ba0a13          	addi	s4,s4,363 # 101016b <_entry_offset+0x101016b>
    80000170:	fffdc4b7          	lui	s1,0xfffdc
    80000174:	04041437          	lui	s0,0x4041
    80000178:	000023b7          	lui	t2,0x2
    8000017c:	008a9a93          	slli	s5,s5,0x8
    80000180:	00000293          	li	t0,0
    80000184:	007a1a13          	slli	s4,s4,0x7
    80000188:	6c0f8f13          	addi	t5,t6,1728 # 202096c0 <_entry_offset+0x202096c0>
    8000018c:	a0048493          	addi	s1,s1,-1536 # fffffffffffdba00 <_end+0xffffffff7ffd2a00>
    80000190:	06088813          	addi	a6,a7,96 # 809060 <_entry_offset+0x809060>
    80000194:	00541413          	slli	s0,s0,0x5
    80000198:	04088993          	addi	s3,a7,64
    8000019c:	00888913          	addi	s2,a7,8
    800001a0:	58038393          	addi	t2,t2,1408 # 2580 <_entry_offset+0x2580>
    800001a4:	0c000b13          	li	s6,192
    800001a8:	01428633          	add	a2,t0,s4
    800001ac:	600f8713          	addi	a4,t6,1536
    800001b0:	00060583          	lb	a1,0(a2)
    800001b4:	00170713          	addi	a4,a4,1
    800001b8:	0c060613          	addi	a2,a2,192
    800001bc:	feb70fa3          	sb	a1,-1(a4)
    800001c0:	ffe718e3          	bne	a4,t5,800001b0 <main+0x1a0>
    800001c4:	000a8e93          	mv	t4,s5
    800001c8:	00000e13          	li	t3,0
    800001cc:	0208e327          	0x208e327
    800001d0:	00088713          	mv	a4,a7
    800001d4:	600f8613          	addi	a2,t6,1536
    800001d8:	009e0533          	add	a0,t3,s1
    800001dc:	00c505b3          	add	a1,a0,a2
    800001e0:	0605e787          	0x605e787
    800001e4:	06066687          	0x6066687
    800001e8:	06d787d7          	0x6d787d7
    800001ec:	020767a7          	0x20767a7
    800001f0:	00870713          	addi	a4,a4,8
    800001f4:	01060613          	addi	a2,a2,16
    800001f8:	ff0712e3          	bne	a4,a6,800001dc <main+0x1cc>
    800001fc:	01c28633          	add	a2,t0,t3
    80000200:	00c40633          	add	a2,s0,a2
    80000204:	b0060603          	lb	a2,-1280(a2)
    80000208:	00c72023          	sw	a2,0(a4)
    8000020c:	0208e687          	0x208e687
    80000210:	3e0687d7          	0x3e0687d7
    80000214:	0208e7a7          	0x208e7a7
    80000218:	0209e687          	0x209e687
    8000021c:	3e0687d7          	0x3e0687d7
    80000220:	020967a7          	0x20967a7
    80000224:	0208e687          	0x208e687
    80000228:	1e0687d7          	0x1e0687d7
    8000022c:	0208e7a7          	0x208e7a7
    80000230:	0008a703          	lw	a4,0(a7)
    80000234:	0c0e0e13          	addi	t3,t3,192
    80000238:	300e8e93          	addi	t4,t4,768
    8000023c:	d0eea023          	sw	a4,-768(t4)
    80000240:	f87e16e3          	bne	t3,t2,800001cc <main+0x1bc>
    80000244:	00128293          	addi	t0,t0,1
    80000248:	004a8a93          	addi	s5,s5,4 # 80b004 <_entry_offset+0x80b004>
    8000024c:	f5629ee3          	bne	t0,s6,800001a8 <main+0x198>
    80000250:	008098b7          	lui	a7,0x809
    80000254:	20205a37          	lui	s4,0x20205
    80000258:	20209fb7          	lui	t6,0x20209
    8000025c:	00889893          	slli	a7,a7,0x8
    80000260:	002f9f93          	slli	t6,t6,0x2
    80000264:	20300a93          	li	s5,515
    80000268:	002a1a13          	slli	s4,s4,0x2
    8000026c:	fffdc4b7          	lui	s1,0xfffdc
    80000270:	40411437          	lui	s0,0x40411
    80000274:	000023b7          	lui	t2,0x2
    80000278:	016a9a93          	slli	s5,s5,0x16
    8000027c:	00000293          	li	t0,0
    80000280:	580a0a13          	addi	s4,s4,1408 # 20205580 <_entry_offset+0x20205580>
    80000284:	6c0f8f13          	addi	t5,t6,1728 # 202096c0 <_entry_offset+0x202096c0>
    80000288:	a0048493          	addi	s1,s1,-1536 # fffffffffffdba00 <_end+0xffffffff7ffd2a00>
    8000028c:	06088813          	addi	a6,a7,96 # 809060 <_entry_offset+0x809060>
    80000290:	00141413          	slli	s0,s0,0x1
    80000294:	04088993          	addi	s3,a7,64
    80000298:	00888913          	addi	s2,a7,8
    8000029c:	58038393          	addi	t2,t2,1408 # 2580 <_entry_offset+0x2580>
    800002a0:	0c000b13          	li	s6,192
    800002a4:	01428633          	add	a2,t0,s4
    800002a8:	600f8713          	addi	a4,t6,1536
    800002ac:	00060583          	lb	a1,0(a2)
    800002b0:	00170713          	addi	a4,a4,1
    800002b4:	0c060613          	addi	a2,a2,192
    800002b8:	feb70fa3          	sb	a1,-1(a4)
    800002bc:	ffe718e3          	bne	a4,t5,800002ac <main+0x29c>
    800002c0:	000a8e93          	mv	t4,s5
    800002c4:	00000e13          	li	t3,0
    800002c8:	0208e327          	0x208e327
    800002cc:	00088713          	mv	a4,a7
    800002d0:	600f8613          	addi	a2,t6,1536
    800002d4:	009e0533          	add	a0,t3,s1
    800002d8:	00c505b3          	add	a1,a0,a2
    800002dc:	0605e787          	0x605e787
    800002e0:	06066687          	0x6066687
    800002e4:	06d787d7          	0x6d787d7
    800002e8:	020767a7          	0x20767a7
    800002ec:	00870713          	addi	a4,a4,8
    800002f0:	01060613          	addi	a2,a2,16
    800002f4:	ff0712e3          	bne	a4,a6,800002d8 <main+0x2c8>
    800002f8:	005e0633          	add	a2,t3,t0
    800002fc:	00c40633          	add	a2,s0,a2
    80000300:	08060603          	lb	a2,128(a2)
    80000304:	00c72023          	sw	a2,0(a4)
    80000308:	0208e687          	0x208e687
    8000030c:	3e0687d7          	0x3e0687d7
    80000310:	0208e7a7          	0x208e7a7
    80000314:	0209e687          	0x209e687
    80000318:	3e0687d7          	0x3e0687d7
    8000031c:	020967a7          	0x20967a7
    80000320:	0208e687          	0x208e687
    80000324:	1e0687d7          	0x1e0687d7
    80000328:	0208e7a7          	0x208e7a7
    8000032c:	0008a703          	lw	a4,0(a7)
    80000330:	0c0e0e13          	addi	t3,t3,192
    80000334:	300e8e93          	addi	t4,t4,768
    80000338:	d0eea023          	sw	a4,-768(t4)
    8000033c:	f87e16e3          	bne	t3,t2,800002c8 <main+0x2b8>
    80000340:	00128293          	addi	t0,t0,1
    80000344:	004a8a93          	addi	s5,s5,4
    80000348:	f5629ee3          	bne	t0,s6,800002a4 <main+0x294>
    8000034c:	ffff7737          	lui	a4,0xffff7
    80000350:	a0070713          	addi	a4,a4,-1536 # ffffffffffff6a00 <_end+0xffffffff7ffeda00>
    80000354:	00e13423          	sd	a4,8(sp)
    80000358:	00001737          	lui	a4,0x1
    8000035c:	9c470713          	addi	a4,a4,-1596 # 9c4 <_entry_offset+0x9c4>
    80000360:	00e13823          	sd	a4,16(sp)
    80000364:	0080f737          	lui	a4,0x80f
    80000368:	00871713          	slli	a4,a4,0x8
    8000036c:	40500f13          	li	t5,1029
    80000370:	008098b7          	lui	a7,0x809
    80000374:	0080b837          	lui	a6,0x80b
    80000378:	015f1f13          	slli	t5,t5,0x15
    8000037c:	00889893          	slli	a7,a7,0x8
    80000380:	00881813          	slli	a6,a6,0x8
    80000384:	00e13c23          	sd	a4,24(sp)
    80000388:	00002fb7          	lui	t6,0x2
    8000038c:	0080d737          	lui	a4,0x80d
    80000390:	00000b93          	li	s7,0
    80000394:	00000c93          	li	s9,0
    80000398:	02088e13          	addi	t3,a7,32 # 809020 <_entry_offset+0x809020>
    8000039c:	00100b13          	li	s6,1
    800003a0:	0c8f0413          	addi	s0,t5,200
    800003a4:	04080593          	addi	a1,a6,64 # 80b040 <_entry_offset+0x80b040>
    800003a8:	040f0393          	addi	t2,t5,64
    800003ac:	00871293          	slli	t0,a4,0x8
    800003b0:	710f8f93          	addi	t6,t6,1808 # 2710 <_entry_offset+0x2710>
    800003b4:	0080d737          	lui	a4,0x80d
    800003b8:	00109937          	lui	s2,0x109
    800003bc:	01eb89b3          	add	s3,s7,t5
    800003c0:	00871a13          	slli	s4,a4,0x8
    800003c4:	60090913          	addi	s2,s2,1536 # 109600 <_entry_offset+0x109600>
    800003c8:	00100ab7          	lui	s5,0x100
    800003cc:	00813703          	ld	a4,8(sp)
    800003d0:	000a0493          	mv	s1,s4
    800003d4:	00e90eb3          	add	t4,s2,a4
    800003d8:	0208e327          	0x208e327
    800003dc:	00098613          	mv	a2,s3
    800003e0:	00088713          	mv	a4,a7
    800003e4:	02066787          	0x2066787
    800003e8:	00ce8533          	add	a0,t4,a2
    800003ec:	02056687          	0x2056687
    800003f0:	06d787d7          	0x6d787d7
    800003f4:	020767a7          	0x20767a7
    800003f8:	00870713          	addi	a4,a4,8 # 80d008 <_entry_offset+0x80d008>
    800003fc:	04060613          	addi	a2,a2,64
    80000400:	ffc712e3          	bne	a4,t3,800003e4 <main+0x3d4>
    80000404:	0208e687          	0x208e687
    80000408:	1e0687d7          	0x1e0687d7
    8000040c:	0208e7a7          	0x208e7a7
    80000410:	0008a703          	lw	a4,0(a7)
    80000414:	300e8e93          	addi	t4,t4,768
    80000418:	00448493          	addi	s1,s1,4
    8000041c:	fee4ae23          	sw	a4,-4(s1)
    80000420:	fbd91ce3          	bne	s2,t4,800003d8 <main+0x3c8>
    80000424:	d0090913          	addi	s2,s2,-768
    80000428:	30098993          	addi	s3,s3,768
    8000042c:	0c8a0a13          	addi	s4,s4,200
    80000430:	f9591ee3          	bne	s2,s5,800003cc <main+0x3bc>
    80000434:	0080d737          	lui	a4,0x80d
    80000438:	00000913          	li	s2,0
    8000043c:	00871493          	slli	s1,a4,0x8
    80000440:	03200513          	li	a0,50
    80000444:	00048613          	mv	a2,s1
    80000448:	00000e93          	li	t4,0
    8000044c:	00000a13          	li	s4,0
    80000450:	00000713          	li	a4,0
    80000454:	00062983          	lw	s3,0(a2)
    80000458:	00460613          	addi	a2,a2,4
    8000045c:	013a5863          	bge	s4,s3,8000046c <main+0x45c>
    80000460:	01899a1b          	slliw	s4,s3,0x18
    80000464:	00070e9b          	sext.w	t4,a4
    80000468:	418a5a1b          	sraiw	s4,s4,0x18
    8000046c:	00170713          	addi	a4,a4,1 # 80d001 <_entry_offset+0x80d001>
    80000470:	fea712e3          	bne	a4,a0,80000454 <main+0x444>
    80000474:	00048613          	mv	a2,s1
    80000478:	00000713          	li	a4,0
    8000047c:	1bd70663          	beq	a4,t4,80000628 <main+0x618>
    80000480:	00062023          	sw	zero,0(a2)
    80000484:	00170713          	addi	a4,a4,1
    80000488:	00460613          	addi	a2,a2,4
    8000048c:	fea718e3          	bne	a4,a0,8000047c <main+0x46c>
    80000490:	01013703          	ld	a4,16(sp)
    80000494:	03290913          	addi	s2,s2,50
    80000498:	0c848493          	addi	s1,s1,200
    8000049c:	fae914e3          	bne	s2,a4,80000444 <main+0x434>
    800004a0:	01813703          	ld	a4,24(sp)
    800004a4:	00000d13          	li	s10,0
    800004a8:	00200537          	lui	a0,0x200
    800004ac:	00eb8c33          	add	s8,s7,a4
    800004b0:	00888a93          	addi	s5,a7,8
    800004b4:	080f0a13          	addi	s4,t5,128
    800004b8:	01088993          	addi	s3,a7,16
    800004bc:	0c0f0913          	addi	s2,t5,192
    800004c0:	01888493          	addi	s1,a7,24
    800004c4:	020f6327          	0x20f6327
    800004c8:	ffd00737          	lui	a4,0xffd00
    800004cc:	00ec0633          	add	a2,s8,a4
    800004d0:	000f0713          	mv	a4,t5
    800004d4:	00062e83          	lw	t4,0(a2)
    800004d8:	00470713          	addi	a4,a4,4 # ffffffffffd00004 <_end+0xffffffff7fcf7004>
    800004dc:	30060613          	addi	a2,a2,768
    800004e0:	ffd72e23          	sw	t4,-4(a4)
    800004e4:	fe8718e3          	bne	a4,s0,800004d4 <main+0x4c4>
    800004e8:	000c0e93          	mv	t4,s8
    800004ec:	00000613          	li	a2,0
    800004f0:	02086327          	0x2086327
    800004f4:	020f6687          	0x20f6687
    800004f8:	00080713          	mv	a4,a6
    800004fc:	00e60db3          	add	s11,a2,a4
    80000500:	01b50db3          	add	s11,a0,s11
    80000504:	000dad83          	lw	s11,0(s11)
    80000508:	00470713          	addi	a4,a4,4
    8000050c:	ffb72e23          	sw	s11,-4(a4)
    80000510:	feb716e3          	bne	a4,a1,800004fc <main+0x4ec>
    80000514:	02086787          	0x2086787
    80000518:	0208e327          	0x208e327
    8000051c:	06d787d7          	0x6d787d7
    80000520:	0208e7a7          	0x208e7a7
    80000524:	02086327          	0x2086327
    80000528:	0203e687          	0x203e687
    8000052c:	00080713          	mv	a4,a6
    80000530:	00e60db3          	add	s11,a2,a4
    80000534:	01b50db3          	add	s11,a0,s11
    80000538:	100dad83          	lw	s11,256(s11)
    8000053c:	00470713          	addi	a4,a4,4
    80000540:	ffb72e23          	sw	s11,-4(a4)
    80000544:	feb716e3          	bne	a4,a1,80000530 <main+0x520>
    80000548:	02086787          	0x2086787
    8000054c:	06d787d7          	0x6d787d7
    80000550:	020ae7a7          	0x20ae7a7
    80000554:	02086327          	0x2086327
    80000558:	020a6687          	0x20a6687
    8000055c:	00080713          	mv	a4,a6
    80000560:	00e60db3          	add	s11,a2,a4
    80000564:	01b50db3          	add	s11,a0,s11
    80000568:	200dad83          	lw	s11,512(s11)
    8000056c:	00470713          	addi	a4,a4,4
    80000570:	ffb72e23          	sw	s11,-4(a4)
    80000574:	feb716e3          	bne	a4,a1,80000560 <main+0x550>
    80000578:	02086787          	0x2086787
    8000057c:	06d787d7          	0x6d787d7
    80000580:	0209e7a7          	0x209e7a7
    80000584:	02086327          	0x2086327
    80000588:	02096687          	0x2096687
    8000058c:	00c28733          	add	a4,t0,a2
    80000590:	30072d83          	lw	s11,768(a4)
    80000594:	01b82023          	sw	s11,0(a6)
    80000598:	30472703          	lw	a4,772(a4)
    8000059c:	00e82223          	sw	a4,4(a6)
    800005a0:	02086787          	0x2086787
    800005a4:	06d787d7          	0x6d787d7
    800005a8:	0204e7a7          	0x204e7a7
    800005ac:	0208e787          	0x208e787
    800005b0:	0e0787d7          	0xe0787d7
    800005b4:	0008a703          	lw	a4,0(a7)
    800005b8:	0c860613          	addi	a2,a2,200
    800005bc:	300e8e93          	addi	t4,t4,768
    800005c0:	d0eea023          	sw	a4,-768(t4)
    800005c4:	f3f616e3          	bne	a2,t6,800004f0 <main+0x4e0>
    800005c8:	001d0d13          	addi	s10,s10,1
    800005cc:	04000713          	li	a4,64
    800005d0:	004c0c13          	addi	s8,s8,4
    800005d4:	eeed18e3          	bne	s10,a4,800004c4 <main+0x4b4>
    800005d8:	001c8c93          	addi	s9,s9,1
    800005dc:	00300713          	li	a4,3
    800005e0:	100b8b93          	addi	s7,s7,256
    800005e4:	dcec98e3          	bne	s9,a4,800003b4 <main+0x3a4>
    800005e8:	08813083          	ld	ra,136(sp)
    800005ec:	08013403          	ld	s0,128(sp)
    800005f0:	07813483          	ld	s1,120(sp)
    800005f4:	07013903          	ld	s2,112(sp)
    800005f8:	06813983          	ld	s3,104(sp)
    800005fc:	06013a03          	ld	s4,96(sp)
    80000600:	05813a83          	ld	s5,88(sp)
    80000604:	05013b03          	ld	s6,80(sp)
    80000608:	04813b83          	ld	s7,72(sp)
    8000060c:	04013c03          	ld	s8,64(sp)
    80000610:	03813c83          	ld	s9,56(sp)
    80000614:	03013d03          	ld	s10,48(sp)
    80000618:	02813d83          	ld	s11,40(sp)
    8000061c:	00000513          	li	a0,0
    80000620:	09010113          	addi	sp,sp,144
    80000624:	00008067          	ret
    80000628:	01662023          	sw	s6,0(a2)
    8000062c:	e59ff06f          	j	80000484 <main+0x474>

0000000080000630 <_trm_init>:
    80000630:	ff010113          	addi	sp,sp,-16
    80000634:	00000517          	auipc	a0,0x0
    80000638:	01c50513          	addi	a0,a0,28 # 80000650 <_etext>
    8000063c:	00113423          	sd	ra,8(sp)
    80000640:	9d1ff0ef          	jal	ra,80000010 <main>
    80000644:	00050513          	mv	a0,a0
    80000648:	0000006b          	0x6b
    8000064c:	0000006f          	j	8000064c <_trm_init+0x1c>
