
/home/docker/workspace/2023EE219_LAB/projects/project/sw/build/vec32-riscv64-mycpu.elf:     file format elf64-littleriscv


Disassembly of section .text:

0000000080000000 <_start>:
    80000000:	00000413          	li	s0,0
    80000004:	00009117          	auipc	sp,0x9
    80000008:	ffc10113          	addi	sp,sp,-4 # 80009000 <_end>
    8000000c:	50c000ef          	jal	ra,80000518 <_trm_init>

0000000080000010 <main>:
    80000010:	f8010113          	addi	sp,sp,-128
    80000014:	10100613          	li	a2,257
    80000018:	101012b7          	lui	t0,0x10101
    8000001c:	00809eb7          	lui	t4,0x809
    80000020:	00081737          	lui	a4,0x81
    80000024:	06813823          	sd	s0,112(sp)
    80000028:	06913423          	sd	s1,104(sp)
    8000002c:	00329293          	slli	t0,t0,0x3
    80000030:	008e9e93          	slli	t4,t4,0x8
    80000034:	40500493          	li	s1,1029
    80000038:	01761613          	slli	a2,a2,0x17
    8000003c:	ffff8437          	lui	s0,0xffff8
    80000040:	80770713          	addi	a4,a4,-2041 # 80807 <_entry_offset+0x80807>
    80000044:	07213023          	sd	s2,96(sp)
    80000048:	05313c23          	sd	s3,88(sp)
    8000004c:	05413823          	sd	s4,80(sp)
    80000050:	06113c23          	sd	ra,120(sp)
    80000054:	05513423          	sd	s5,72(sp)
    80000058:	05613023          	sd	s6,64(sp)
    8000005c:	03713c23          	sd	s7,56(sp)
    80000060:	03813823          	sd	s8,48(sp)
    80000064:	03913423          	sd	s9,40(sp)
    80000068:	03a13023          	sd	s10,32(sp)
    8000006c:	01b13c23          	sd	s11,24(sp)
    80000070:	00008793          	mv	a5,ra
    80000074:	00000893          	li	a7,0
    80000078:	00010693          	mv	a3,sp
    8000007c:	01549493          	slli	s1,s1,0x15
    80000080:	00000f93          	li	t6,0
    80000084:	3c060913          	addi	s2,a2,960
    80000088:	b6028513          	addi	a0,t0,-1184 # 10100b60 <_entry_offset+0x10100b60>
    8000008c:	50040413          	addi	s0,s0,1280 # ffffffffffff8500 <_end+0xffffffff7ffef500>
    80000090:	030e8313          	addi	t1,t4,48 # 809030 <_entry_offset+0x809030>
    80000094:	00c71393          	slli	t2,a4,0xc
    80000098:	3c000993          	li	s3,960
    8000009c:	06000a13          	li	s4,96
    800000a0:	012f8633          	add	a2,t6,s2
    800000a4:	b0028713          	addi	a4,t0,-1280
    800000a8:	00060583          	lb	a1,0(a2)
    800000ac:	00170713          	addi	a4,a4,1
    800000b0:	06060613          	addi	a2,a2,96
    800000b4:	feb70fa3          	sb	a1,-1(a4)
    800000b8:	fea718e3          	bne	a4,a0,800000a8 <main+0x98>
    800000bc:	00048f13          	mv	t5,s1
    800000c0:	00000e13          	li	t3,0
    800000c4:	020ee8a7          	0x20ee8a7
    800000c8:	000e8713          	mv	a4,t4
    800000cc:	b0028613          	addi	a2,t0,-1280
    800000d0:	008e0833          	add	a6,t3,s0
    800000d4:	00c805b3          	add	a1,a6,a2
    800000d8:	0605e787          	0x605e787
    800000dc:	06066687          	0x6066687
    800000e0:	06d787d7          	0x6d787d7
    800000e4:	020767a7          	0x20767a7
    800000e8:	00870713          	addi	a4,a4,8
    800000ec:	01060613          	addi	a2,a2,16
    800000f0:	fe6712e3          	bne	a4,t1,800000d4 <main+0xc4>
    800000f4:	01cf8633          	add	a2,t6,t3
    800000f8:	00c38633          	add	a2,t2,a2
    800000fc:	fc060603          	lb	a2,-64(a2)
    80000100:	00c72023          	sw	a2,0(a4)
    80000104:	020ee687          	0x20ee687
    80000108:	1e0687d7          	0x1e0687d7
    8000010c:	020ee7a7          	0x20ee7a7
    80000110:	000ea703          	lw	a4,0(t4)
    80000114:	060e0e13          	addi	t3,t3,96
    80000118:	180f0f13          	addi	t5,t5,384
    8000011c:	e8ef2023          	sw	a4,-384(t5)
    80000120:	fb3e12e3          	bne	t3,s3,800000c4 <main+0xb4>
    80000124:	001f8f93          	addi	t6,t6,1
    80000128:	00448493          	addi	s1,s1,4
    8000012c:	f74f9ae3          	bne	t6,s4,800000a0 <main+0x90>
    80000130:	40401937          	lui	s2,0x40401
    80000134:	101012b7          	lui	t0,0x10101
    80000138:	00809eb7          	lui	t4,0x809
    8000013c:	000813b7          	lui	t2,0x81
    80000140:	00329293          	slli	t0,t0,0x3
    80000144:	008e9e93          	slli	t4,t4,0x8
    80000148:	0080b4b7          	lui	s1,0x80b
    8000014c:	00191913          	slli	s2,s2,0x1
    80000150:	ffff8437          	lui	s0,0xffff8
    80000154:	80738393          	addi	t2,t2,-2041 # 80807 <_entry_offset+0x80807>
    80000158:	00849493          	slli	s1,s1,0x8
    8000015c:	00000f93          	li	t6,0
    80000160:	7c090913          	addi	s2,s2,1984 # 404017c0 <_entry_offset+0x404017c0>
    80000164:	b6028513          	addi	a0,t0,-1184 # 10100b60 <_entry_offset+0x10100b60>
    80000168:	50040413          	addi	s0,s0,1280 # ffffffffffff8500 <_end+0xffffffff7ffef500>
    8000016c:	030e8313          	addi	t1,t4,48 # 809030 <_entry_offset+0x809030>
    80000170:	00c39393          	slli	t2,t2,0xc
    80000174:	3c000993          	li	s3,960
    80000178:	06000a13          	li	s4,96
    8000017c:	012f8633          	add	a2,t6,s2
    80000180:	b0028713          	addi	a4,t0,-1280
    80000184:	00060583          	lb	a1,0(a2)
    80000188:	00170713          	addi	a4,a4,1
    8000018c:	06060613          	addi	a2,a2,96
    80000190:	feb70fa3          	sb	a1,-1(a4)
    80000194:	fea718e3          	bne	a4,a0,80000184 <main+0x174>
    80000198:	00048f13          	mv	t5,s1
    8000019c:	00000e13          	li	t3,0
    800001a0:	020ee8a7          	0x20ee8a7
    800001a4:	000e8713          	mv	a4,t4
    800001a8:	b0028613          	addi	a2,t0,-1280
    800001ac:	008e0833          	add	a6,t3,s0
    800001b0:	00c805b3          	add	a1,a6,a2
    800001b4:	0605e787          	0x605e787
    800001b8:	06066687          	0x6066687
    800001bc:	06d787d7          	0x6d787d7
    800001c0:	020767a7          	0x20767a7
    800001c4:	00870713          	addi	a4,a4,8
    800001c8:	01060613          	addi	a2,a2,16
    800001cc:	fe6712e3          	bne	a4,t1,800001b0 <main+0x1a0>
    800001d0:	01cf8633          	add	a2,t6,t3
    800001d4:	00c38633          	add	a2,t2,a2
    800001d8:	38060603          	lb	a2,896(a2)
    800001dc:	00c72023          	sw	a2,0(a4)
    800001e0:	020ee687          	0x20ee687
    800001e4:	1e0687d7          	0x1e0687d7
    800001e8:	020ee7a7          	0x20ee7a7
    800001ec:	000ea703          	lw	a4,0(t4)
    800001f0:	060e0e13          	addi	t3,t3,96
    800001f4:	180f0f13          	addi	t5,t5,384
    800001f8:	e8ef2023          	sw	a4,-384(t5)
    800001fc:	fb3e12e3          	bne	t3,s3,800001a0 <main+0x190>
    80000200:	001f8f93          	addi	t6,t6,1
    80000204:	00448493          	addi	s1,s1,4 # 80b004 <_entry_offset+0x80b004>
    80000208:	f74f9ae3          	bne	t6,s4,8000017c <main+0x16c>
    8000020c:	02020937          	lui	s2,0x2020
    80000210:	101012b7          	lui	t0,0x10101
    80000214:	00809eb7          	lui	t4,0x809
    80000218:	000813b7          	lui	t2,0x81
    8000021c:	00329293          	slli	t0,t0,0x3
    80000220:	008e9e93          	slli	t4,t4,0x8
    80000224:	20300493          	li	s1,515
    80000228:	12f90913          	addi	s2,s2,303 # 202012f <_entry_offset+0x202012f>
    8000022c:	ffff8437          	lui	s0,0xffff8
    80000230:	80738393          	addi	t2,t2,-2041 # 80807 <_entry_offset+0x80807>
    80000234:	01649493          	slli	s1,s1,0x16
    80000238:	00000f93          	li	t6,0
    8000023c:	00691913          	slli	s2,s2,0x6
    80000240:	b6028513          	addi	a0,t0,-1184 # 10100b60 <_entry_offset+0x10100b60>
    80000244:	50040413          	addi	s0,s0,1280 # ffffffffffff8500 <_end+0xffffffff7ffef500>
    80000248:	030e8313          	addi	t1,t4,48 # 809030 <_entry_offset+0x809030>
    8000024c:	00c39393          	slli	t2,t2,0xc
    80000250:	3c000993          	li	s3,960
    80000254:	06000a13          	li	s4,96
    80000258:	012f8633          	add	a2,t6,s2
    8000025c:	b0028713          	addi	a4,t0,-1280
    80000260:	00060583          	lb	a1,0(a2)
    80000264:	00170713          	addi	a4,a4,1
    80000268:	06060613          	addi	a2,a2,96
    8000026c:	feb70fa3          	sb	a1,-1(a4)
    80000270:	fea718e3          	bne	a4,a0,80000260 <main+0x250>
    80000274:	00048f13          	mv	t5,s1
    80000278:	00000e13          	li	t3,0
    8000027c:	020ee8a7          	0x20ee8a7
    80000280:	000e8713          	mv	a4,t4
    80000284:	b0028613          	addi	a2,t0,-1280
    80000288:	008e0833          	add	a6,t3,s0
    8000028c:	00c805b3          	add	a1,a6,a2
    80000290:	0605e787          	0x605e787
    80000294:	06066687          	0x6066687
    80000298:	06d787d7          	0x6d787d7
    8000029c:	020767a7          	0x20767a7
    800002a0:	00870713          	addi	a4,a4,8
    800002a4:	01060613          	addi	a2,a2,16
    800002a8:	fe6712e3          	bne	a4,t1,8000028c <main+0x27c>
    800002ac:	01fe0633          	add	a2,t3,t6
    800002b0:	00c38633          	add	a2,t2,a2
    800002b4:	74060603          	lb	a2,1856(a2)
    800002b8:	00c72023          	sw	a2,0(a4)
    800002bc:	020ee687          	0x20ee687
    800002c0:	1e0687d7          	0x1e0687d7
    800002c4:	020ee7a7          	0x20ee7a7
    800002c8:	000ea703          	lw	a4,0(t4)
    800002cc:	060e0e13          	addi	t3,t3,96
    800002d0:	180f0f13          	addi	t5,t5,384
    800002d4:	e8ef2023          	sw	a4,-384(t5)
    800002d8:	fb3e12e3          	bne	t3,s3,8000027c <main+0x26c>
    800002dc:	001f8f93          	addi	t6,t6,1
    800002e0:	00448493          	addi	s1,s1,4
    800002e4:	f74f9ae3          	bne	t6,s4,80000258 <main+0x248>
    800002e8:	0080b737          	lui	a4,0x80b
    800002ec:	00871c13          	slli	s8,a4,0x8
    800002f0:	00f70713          	addi	a4,a4,15 # 80b00f <_entry_offset+0x80b00f>
    800002f4:	00871393          	slli	t2,a4,0x8
    800002f8:	ffeff737          	lui	a4,0xffeff
    800002fc:	10070713          	addi	a4,a4,256 # ffffffffffeff100 <_end+0xffffffff7fef6100>
    80000300:	0080abb7          	lui	s7,0x80a
    80000304:	00809337          	lui	t1,0x809
    80000308:	40500493          	li	s1,1029
    8000030c:	00e13023          	sd	a4,0(sp)
    80000310:	003ff737          	lui	a4,0x3ff
    80000314:	00831313          	slli	t1,t1,0x8
    80000318:	01549493          	slli	s1,s1,0x15
    8000031c:	00fb8b93          	addi	s7,s7,15 # 80a00f <_entry_offset+0x80a00f>
    80000320:	10070713          	addi	a4,a4,256 # 3ff100 <_entry_offset+0x3ff100>
    80000324:	008b9b93          	slli	s7,s7,0x8
    80000328:	00000c93          	li	s9,0
    8000032c:	0080ddb7          	lui	s11,0x80d
    80000330:	00830913          	addi	s2,t1,8 # 809008 <_entry_offset+0x809008>
    80000334:	00a00293          	li	t0,10
    80000338:	00100b13          	li	s6,1
    8000033c:	06400d13          	li	s10,100
    80000340:	00e13423          	sd	a4,8(sp)
    80000344:	ffd00ab7          	lui	s5,0xffd00
    80000348:	02848f13          	addi	t5,s1,40
    8000034c:	000c0e93          	mv	t4,s8
    80000350:	028c0513          	addi	a0,s8,40
    80000354:	02000a13          	li	s4,32
    80000358:	00013703          	ld	a4,0(sp)
    8000035c:	008d9f93          	slli	t6,s11,0x8
    80000360:	00e38833          	add	a6,t2,a4
    80000364:	04080e13          	addi	t3,a6,64
    80000368:	000f8613          	mv	a2,t6
    8000036c:	000c0713          	mv	a4,s8
    80000370:	020368a7          	0x20368a7
    80000374:	02086787          	0x2086787
    80000378:	02076687          	0x2076687
    8000037c:	06d787d7          	0x6d787d7
    80000380:	020367a7          	0x20367a7
    80000384:	020e6787          	0x20e6787
    80000388:	04070593          	addi	a1,a4,64
    8000038c:	0205e687          	0x205e687
    80000390:	06d787d7          	0x6d787d7
    80000394:	020967a7          	0x20967a7
    80000398:	02036687          	0x2036687
    8000039c:	1e0687d7          	0x1e0687d7
    800003a0:	020367a7          	0x20367a7
    800003a4:	00032583          	lw	a1,0(t1)
    800003a8:	18070713          	addi	a4,a4,384
    800003ac:	00460613          	addi	a2,a2,4
    800003b0:	feb62e23          	sw	a1,-4(a2)
    800003b4:	fae39ee3          	bne	t2,a4,80000370 <main+0x360>
    800003b8:	18080813          	addi	a6,a6,384
    800003bc:	028f8f93          	addi	t6,t6,40
    800003c0:	fb0b92e3          	bne	s7,a6,80000364 <main+0x354>
    800003c4:	00000413          	li	s0,0
    800003c8:	008d9f93          	slli	t6,s11,0x8
    800003cc:	000f8613          	mv	a2,t6
    800003d0:	00000e13          	li	t3,0
    800003d4:	00000813          	li	a6,0
    800003d8:	00000713          	li	a4,0
    800003dc:	00062583          	lw	a1,0(a2)
    800003e0:	00460613          	addi	a2,a2,4
    800003e4:	00b85863          	bge	a6,a1,800003f4 <main+0x3e4>
    800003e8:	0185981b          	slliw	a6,a1,0x18
    800003ec:	00070e1b          	sext.w	t3,a4
    800003f0:	4188581b          	sraiw	a6,a6,0x18
    800003f4:	00170713          	addi	a4,a4,1
    800003f8:	fe5712e3          	bne	a4,t0,800003dc <main+0x3cc>
    800003fc:	000f8613          	mv	a2,t6
    80000400:	00000713          	li	a4,0
    80000404:	11c70663          	beq	a4,t3,80000510 <main+0x500>
    80000408:	00062023          	sw	zero,0(a2)
    8000040c:	00170713          	addi	a4,a4,1
    80000410:	00460613          	addi	a2,a2,4
    80000414:	fe5718e3          	bne	a4,t0,80000404 <main+0x3f4>
    80000418:	00a40413          	addi	s0,s0,10
    8000041c:	028f8f93          	addi	t6,t6,40
    80000420:	fba416e3          	bne	s0,s10,800003cc <main+0x3bc>
    80000424:	00813703          	ld	a4,8(sp)
    80000428:	00000993          	li	s3,0
    8000042c:	00200837          	lui	a6,0x200
    80000430:	00e38433          	add	s0,t2,a4
    80000434:	19000f93          	li	t6,400
    80000438:	0204e8a7          	0x204e8a7
    8000043c:	01540633          	add	a2,s0,s5
    80000440:	00048713          	mv	a4,s1
    80000444:	00062583          	lw	a1,0(a2)
    80000448:	00470713          	addi	a4,a4,4
    8000044c:	18060613          	addi	a2,a2,384
    80000450:	feb72e23          	sw	a1,-4(a4)
    80000454:	ffe718e3          	bne	a4,t5,80000444 <main+0x434>
    80000458:	0204e687          	0x204e687
    8000045c:	00000593          	li	a1,0
    80000460:	00040e13          	mv	t3,s0
    80000464:	020ee8a7          	0x20ee8a7
    80000468:	000e8713          	mv	a4,t4
    8000046c:	00e58633          	add	a2,a1,a4
    80000470:	00c80633          	add	a2,a6,a2
    80000474:	00062603          	lw	a2,0(a2)
    80000478:	00470713          	addi	a4,a4,4
    8000047c:	fec72e23          	sw	a2,-4(a4)
    80000480:	fea716e3          	bne	a4,a0,8000046c <main+0x45c>
    80000484:	020368a7          	0x20368a7
    80000488:	020ee787          	0x20ee787
    8000048c:	06d787d7          	0x6d787d7
    80000490:	0e0787d7          	0xe0787d7
    80000494:	020367a7          	0x20367a7
    80000498:	00032703          	lw	a4,0(t1)
    8000049c:	02858593          	addi	a1,a1,40
    800004a0:	180e0e13          	addi	t3,t3,384
    800004a4:	e8ee2023          	sw	a4,-384(t3)
    800004a8:	fbf59ee3          	bne	a1,t6,80000464 <main+0x454>
    800004ac:	00198993          	addi	s3,s3,1
    800004b0:	00440413          	addi	s0,s0,4
    800004b4:	f94992e3          	bne	s3,s4,80000438 <main+0x428>
    800004b8:	001c8c93          	addi	s9,s9,1
    800004bc:	00300713          	li	a4,3
    800004c0:	080b8b93          	addi	s7,s7,128
    800004c4:	080c0c13          	addi	s8,s8,128
    800004c8:	08038393          	addi	t2,t2,128
    800004cc:	e8ec96e3          	bne	s9,a4,80000358 <main+0x348>
    800004d0:	07813083          	ld	ra,120(sp)
    800004d4:	07013403          	ld	s0,112(sp)
    800004d8:	06813483          	ld	s1,104(sp)
    800004dc:	06013903          	ld	s2,96(sp)
    800004e0:	05813983          	ld	s3,88(sp)
    800004e4:	05013a03          	ld	s4,80(sp)
    800004e8:	04813a83          	ld	s5,72(sp)
    800004ec:	04013b03          	ld	s6,64(sp)
    800004f0:	03813b83          	ld	s7,56(sp)
    800004f4:	03013c03          	ld	s8,48(sp)
    800004f8:	02813c83          	ld	s9,40(sp)
    800004fc:	02013d03          	ld	s10,32(sp)
    80000500:	01813d83          	ld	s11,24(sp)
    80000504:	00000513          	li	a0,0
    80000508:	08010113          	addi	sp,sp,128
    8000050c:	00008067          	ret
    80000510:	01662023          	sw	s6,0(a2)
    80000514:	ef9ff06f          	j	8000040c <main+0x3fc>

0000000080000518 <_trm_init>:
    80000518:	ff010113          	addi	sp,sp,-16
    8000051c:	00000517          	auipc	a0,0x0
    80000520:	01c50513          	addi	a0,a0,28 # 80000538 <_etext>
    80000524:	00113423          	sd	ra,8(sp)
    80000528:	ae9ff0ef          	jal	ra,80000010 <main>
    8000052c:	00050513          	mv	a0,a0
    80000530:	0000006b          	0x6b
    80000534:	0000006f          	j	80000534 <_trm_init+0x1c>
